; Function Attrs: nounwind uwtable
define hidden ptr @SDL_EGL_CreateOffscreenSurface(ptr noundef readonly captures(none) %0, i32 noundef %1, i32 noundef %2) local_unnamed_addr #0 {
  %4 = alloca [5 x i32], align 16
  call void @llvm.lifetime.start.p0(i64 20, ptr nonnull %4) #7
  call void @llvm.memcpy.p0.p0.i64(ptr noundef nonnull align 16 dereferenceable(20) %4, ptr noundef nonnull align 16 dereferenceable(20) @__const.SDL_EGL_CreateOffscreenSurface.attributes, i64 20, i1 false)
  %5 = getelementptr inbounds nuw i8, ptr %4, i64 4
  store i32 %1, ptr %5, align 4
  %6 = getelementptr inbounds nuw i8, ptr %4, i64 12
  store i32 %2, ptr %6, align 4
  %7 = tail call zeroext i1 @SDL_EGL_ChooseConfig(ptr noundef %0)
  br i1 %7, label %8, label %18

8:                                                ; preds = %3
  %9 = getelementptr inbounds nuw i8, ptr %0, i64 1672
  %10 = load ptr, ptr %9, align 8
  %11 = getelementptr inbounds nuw i8, ptr %10, i64 120
  %12 = load ptr, ptr %11, align 8
  %13 = getelementptr inbounds nuw i8, ptr %10, i64 16
  %14 = load ptr, ptr %13, align 8
  %15 = getelementptr inbounds nuw i8, ptr %10, i64 24
  %16 = load ptr, ptr %15, align 8
  %17 = call ptr %12(ptr noundef %14, ptr noundef %16, ptr noundef nonnull %4) #7
  br label %18

18:                                               ; preds = %3, %8
  %.0 = phi ptr [ %17, %8 ], [ null, %3 ]
  call void @llvm.lifetime.end.p0(i64 20, ptr nonnull %4) #7
  ret ptr %.0
}